; Function Attrs: mustprogress uwtable
define hidden void @_ZN4lean6mk_appEjPKNS_4exprE(ptr dead_on_unwind noalias writable sret(%"class.lean::expr") align 8 initializes((0, 8)) %0, i32 noundef %1, ptr noundef readonly captures(none) %2) local_unnamed_addr #0 personality ptr @__gxx_personality_v0 {
  %4 = alloca %"class.lean::expr", align 8
  call void @llvm.lifetime.start.p0(i64 8, ptr nonnull %4) #16
  %5 = getelementptr inbounds nuw i8, ptr %2, i64 8
  tail call void @llvm.experimental.noalias.scope.decl(metadata !55)
  %6 = load ptr, ptr %2, align 8, !tbaa !10, !noalias !55
  %7 = ptrtoint ptr %6 to i64
  %8 = and i64 %7, 1
  %.not.i.i.i = icmp eq i64 %8, 0
  br i1 %.not.i.i.i, label %9, label %_ZNK4lean10object_ref10to_obj_argEv.exit.i

9:                                                ; preds = %3
  %.val.i.i.i.i = load i32, ptr %6, align 4, !tbaa !21, !noalias !55
  %10 = icmp sgt i32 %.val.i.i.i.i, 0
  br i1 %10, label %11, label %13, !prof !24

11:                                               ; preds = %9
  %12 = add nuw nsw i32 %.val.i.i.i.i, 1
  store i32 %12, ptr %6, align 4, !tbaa !21, !noalias !55
  br label %_ZNK4lean10object_ref10to_obj_argEv.exit.i

13:                                               ; preds = %9
  %.not.i.i.i.i = icmp eq i32 %.val.i.i.i.i, 0
  br i1 %.not.i.i.i.i, label %_ZNK4lean10object_ref10to_obj_argEv.exit.i, label %14

14:                                               ; preds = %13
  tail call void @lean_inc_ref_cold(ptr noundef nonnull %6), !noalias !55
  %.pre.i.i = load ptr, ptr %2, align 8, !tbaa !10, !noalias !55
  br label %_ZNK4lean10object_ref10to_obj_argEv.exit.i

_ZNK4lean10object_ref10to_obj_argEv.exit.i:       ; preds = %14, %13, %11, %3
  %15 = phi ptr [ %6, %3 ], [ %6, %11 ], [ %6, %13 ], [ %.pre.i.i, %14 ]
  %16 = load ptr, ptr %5, align 8, !tbaa !10, !noalias !55
  %17 = ptrtoint ptr %16 to i64
  %18 = and i64 %17, 1
  %.not.i.i2.i = icmp eq i64 %18, 0
  br i1 %.not.i.i2.i, label %19, label %_ZN4lean6mk_appERKNS_4exprES2_.exit

19:                                               ; preds = %_ZNK4lean10object_ref10to_obj_argEv.exit.i
  %.val.i.i.i3.i = load i32, ptr %16, align 4, !tbaa !21, !noalias !55
  %20 = icmp sgt i32 %.val.i.i.i3.i, 0
  br i1 %20, label %21, label %23, !prof !24

21:                                               ; preds = %19
  %22 = add nuw nsw i32 %.val.i.i.i3.i, 1
  store i32 %22, ptr %16, align 4, !tbaa !21, !noalias !55
  br label %_ZN4lean6mk_appERKNS_4exprES2_.exit

23:                                               ; preds = %19
  %.not.i.i.i4.i = icmp eq i32 %.val.i.i.i3.i, 0
  br i1 %.not.i.i.i4.i, label %_ZN4lean6mk_appERKNS_4exprES2_.exit, label %24

24:                                               ; preds = %23
  tail call void @lean_inc_ref_cold(ptr noundef nonnull %16), !noalias !55
  %.pre.i5.i = load ptr, ptr %5, align 8, !tbaa !10, !noalias !55
  br label %_ZN4lean6mk_appERKNS_4exprES2_.exit

_ZN4lean6mk_appERKNS_4exprES2_.exit:              ; preds = %_ZNK4lean10object_ref10to_obj_argEv.exit.i, %21, %23, %24
  %25 = phi ptr [ %16, %_ZNK4lean10object_ref10to_obj_argEv.exit.i ], [ %16, %21 ], [ %16, %23 ], [ %.pre.i5.i, %24 ]
  %26 = tail call ptr @lean_expr_mk_app(ptr noundef %15, ptr noundef %25), !noalias !55
  store ptr %26, ptr %4, align 8, !tbaa !10, !alias.scope !55
  %27 = add i32 %1, -2
  %28 = getelementptr inbounds nuw i8, ptr %2, i64 16
  invoke void @_ZN4lean6mk_appERKNS_4exprEjPS1_(ptr dead_on_unwind writable sret(%"class.lean::expr") align 8 %0, ptr noundef nonnull align 8 dereferenceable(8) %4, i32 noundef %27, ptr noundef nonnull %28)
          to label %29 unwind label %42

29:                                               ; preds = %_ZN4lean6mk_appERKNS_4exprES2_.exit
  %30 = ptrtoint ptr %26 to i64
  %31 = and i64 %30, 1
  %.not.i.i = icmp eq i64 %31, 0
  br i1 %.not.i.i, label %32, label %_ZN4lean10object_refD2Ev.exit

32:                                               ; preds = %29
  %33 = load i32, ptr %26, align 4, !tbaa !21
  %34 = icmp sgt i32 %33, 1
  br i1 %34, label %35, label %37, !prof !24

35:                                               ; preds = %32
  %36 = add nsw i32 %33, -1
  store i32 %36, ptr %26, align 4, !tbaa !21
  br label %_ZN4lean10object_refD2Ev.exit

37:                                               ; preds = %32
  %.not.i.i.i5 = icmp eq i32 %33, 0
  br i1 %.not.i.i.i5, label %_ZN4lean10object_refD2Ev.exit, label %38

38:                                               ; preds = %37
  invoke void @lean_dec_ref_cold(ptr noundef nonnull %26)
          to label %_ZN4lean10object_refD2Ev.exit unwind label %39

39:                                               ; preds = %38
  %40 = landingpad { ptr, i32 }
          catch ptr null
  %41 = extractvalue { ptr, i32 } %40, 0
  tail call void @__clang_call_terminate(ptr %41) #19
  unreachable

_ZN4lean10object_refD2Ev.exit:                    ; preds = %29, %35, %37, %38
  call void @llvm.lifetime.end.p0(i64 8, ptr nonnull %4) #16
  ret void

42:                                               ; preds = %_ZN4lean6mk_appERKNS_4exprES2_.exit
  %43 = landingpad { ptr, i32 }
          cleanup
  call void @_ZN4lean10object_refD2Ev(ptr noundef nonnull align 8 dereferenceable(8) %4) #16
  call void @llvm.lifetime.end.p0(i64 8, ptr nonnull %4) #16
  resume { ptr, i32 } %43
}